ccollections
OrderedDict
p1
((lp2
(lp3
S'1.cz'
p4
a(lp5
S'1.cz'
p6
a(lp7
S'/s\\/([^\\/]+)/'
p8
aS'q'
aaS's/{k}'
p9
aS'iso-8859-2'
p10
aaa(lp11
S'www.123people.com'
p12
a(lp13
S'123people'
p14
a(lp15
S'/s\\/([^\\/]+)/'
p16
aS'search_term'
p17
aaS's/{k}'
p18
aaa(lp19
S'123people.{}'
p20
a(lp21
g14
aaa(lp22
S'so.360.cn'
p23
a(lp24
S'360search'
p25
aS'q'
aS's?q={k}'
p26
a(lp27
S'UTF-8'
p28
aS'gb2312'
p29
aaaa(lp30
S'www.so.com'
p31
a(lp32
g25
aS'q'
aS's?q={k}'
p33
a(lp34
S'UTF-8'
p35
ag29
aaaa(lp36
S'm.so.com'
p37
a(lp38
g25
aS'q'
aS's?q={k}'
p39
a(lp40
S'UTF-8'
p41
ag29
aaaa(lp42
S'www.abacho.de'
p43
a(lp44
S'Abacho'
p45
aS'q'
aS'suche?q={k}'
p46
aaa(lp47
S'www.abacho.com'
p48
a(lp49
g45
aaa(lp50
S'www.abacho.co.uk'
p51
a(lp52
g45
aaa(lp53
S'www.se.abacho.com'
p54
a(lp55
g45
aaa(lp56
S'www.tr.abacho.com'
p57
a(lp58
g45
aaa(lp59
S'www.abacho.at'
p60
a(lp61
g45
aaa(lp62
S'www.abacho.fr'
p63
a(lp64
g45
aaa(lp65
S'www.abacho.es'
p66
a(lp67
g45
aaa(lp68
S'www.abacho.ch'
p69
a(lp70
g45
aaa(lp71
S'www.abacho.it'
p72
a(lp73
g45
aaa(lp74
S'abcsok.no'
p75
a(lp76
S'ABCs\xc3\xb8k'
p77
aS'q'
aS'?q={k}'
p78
aaa(lp79
S'verden.abcsok.no'
p80
a(lp81
S'ABCs\xc3\xb8k'
p82
aaa(lp83
S'www.acoon.de'
p84
a(lp85
S'Acoon'
p86
aS'begriff'
p87
aS'cgi-bin/search.exe?begriff={k}'
p88
aaa(lp89
S'chercherfr.aguea.com'
p90
a(lp91
S'Aguea'
p92
aS'q'
aS's.py?q={k}'
p93
aaa(lp94
S'alexa.com'
p95
a(lp96
S'Alexa'
p97
aS'q'
aS'search?q={k}'
p98
aaa(lp99
S'search.toolbars.alexa.com'
p100
a(lp101
g97
aaa(lp102
S'rechercher.aliceadsl.fr'
p103
a(lp104
S'Alice Adsl'
p105
aS'qs'
p106
aS'google.pl?qs={k}'
p107
aaa(lp108
S'www.allesklar.de'
p109
a(lp110
S'Allesklar'
p111
aS'words'
p112
aS'?words={k}'
p113
aaa(lp114
S'www.allesklar.at'
p115
a(lp116
g111
aaa(lp117
S'www.allesklar.ch'
p118
a(lp119
g111
aaa(lp120
S'www.alltheweb.com'
p121
a(lp122
S'AllTheWeb'
p123
aS'q'
aS'search?q={k}'
p124
aaa(lp125
S'all.by'
p126
a(lp127
S'All.by'
p128
aS'query'
p129
aS'cgi-bin/search.cgi?mode=by&query={k}'
p130
aaa(lp131
S'www.altavista.com'
p132
a(lp133
S'AltaVista'
p134
aS'q'
aS'web/results?q={k}'
p135
aaa(lp136
S'search.altavista.com'
p137
a(lp138
g134
aaa(lp139
S'listings.altavista.com'
p140
a(lp141
g134
aaa(lp142
S'altavista.de'
p143
a(lp144
g134
aaa(lp145
S'altavista.fr'
p146
a(lp147
g134
aaa(lp148
S'{}.altavista.com'
p149
a(lp150
g134
aaa(lp151
S'be-nl.altavista.com'
p152
a(lp153
g134
aaa(lp154
S'be-fr.altavista.com'
p155
a(lp156
g134
aaa(lp157
S'apollo.lv/portal/search/'
p158
a(lp159
S'Apollo lv'
p160
aS'q'
aS'?cof=FORID%3A11&q={k}&search_where=www'
p161
aaa(lp162
S'apollo7.de'
p163
a(lp164
S'Apollo7'
p165
ag129
aS'a7db/index.php?query={k}&de_sharelook=true&de_bing=true&de_witch=true&de_google=true&de_yahoo=true&de_lycos=true'
p166
aaa(lp167
S'search.aol.com'
p168
a(lp169
S'AOL'
p170
a(lp171
g129
aS'q'
aaS'aol/search?q={k}'
p172
aaa(lp173
S'search.aol.it'
p174
a(lp175
g170
aaa(lp176
S'aolsearch.aol.com'
p177
a(lp178
g170
aaa(lp179
S'www.aolrecherche.aol.fr'
p180
a(lp181
g170
aaa(lp182
S'www.aolrecherches.aol.fr'
p183
a(lp184
g170
aaa(lp185
S'www.aolimages.aol.fr'
p186
a(lp187
g170
aaa(lp188
S'aim.search.aol.com'
p189
a(lp190
g170
aaa(lp191
S'www.recherche.aol.fr'
p192
a(lp193
g170
aaa(lp194
S'recherche.aol.fr'
p195
a(lp196
g170
aaa(lp197
S'find.web.aol.com'
p198
a(lp199
g170
aaa(lp200
S'recherche.aol.ca'
p201
a(lp202
g170
aaa(lp203
S'aolsearch.aol.co.uk'
p204
a(lp205
g170
aaa(lp206
S'search.aol.co.uk'
p207
a(lp208
g170
aaa(lp209
S'aolrecherche.aol.fr'
p210
a(lp211
g170
aaa(lp212
S'sucheaol.aol.de'
p213
a(lp214
g170
aaa(lp215
S'suche.aol.de'
p216
a(lp217
g170
aaa(lp218
S'o2suche.aol.de'
p219
a(lp220
g170
aaa(lp221
S'suche.aolsvc.de'
p222
a(lp223
g170
aaa(lp224
S'aolbusqueda.aol.com.mx'
p225
a(lp226
g170
aaa(lp227
S'alicesuche.aol.de'
p228
a(lp229
g170
aaa(lp230
S'alicesuchet.aol.de'
p231
a(lp232
g170
aaa(lp233
S'suchet2.aol.de'
p234
a(lp235
g170
aaa(lp236
S'search.hp.my.aol.com.au'
p237
a(lp238
g170
aaa(lp239
S'search.hp.my.aol.de'
p240
a(lp241
g170
aaa(lp242
S'search.hp.my.aol.it'
p243
a(lp244
g170
aaa(lp245
S'search-intl.netscape.com'
p246
a(lp247
g170
aaa(lp248
S'de.aolsearch.com'
p249
a(lp250
g170
aS'q'
aS'search?q={k}'
p251
aaa(lp252
S'sm.aport.ru'
p253
a(lp254
S'Aport'
p255
aS'r'
aS'search?r={k}'
p256
aaa(lp257
S'arama.com'
p258
a(lp259
S'Arama'
p260
aS'q'
aS'search.php3?q={k}'
p261
aaa(lp262
S'www.arcor.de'
p263
a(lp264
S'Arcor'
p265
aS'Keywords'
p266
aS'content/searchresult.jsp?Keywords={k}'
p267
aaa(lp268
S'arianna.libero.it'
p269
a(lp270
S'Arianna'
p271
ag129
aS'search/abin/integrata.cgi?query={k}'
p272
aaa(lp273
S'www.arianna.com'
p274
a(lp275
g271
aaa(lp276
S'ask.com'
p277
a(lp278
S'Ask'
p279
a(lp280
S'ask'
p281
aS'q'
aS'searchfor'
p282
aaS'web?q={k}'
p283
aaa(lp284
S'web.ask.com'
p285
a(lp286
g279
aaa(lp287
S'int.ask.com'
p288
a(lp289
g279
aaa(lp290
S'mws.ask.com'
p291
a(lp292
g279
aaa(lp293
S'images.ask.com'
p294
a(lp295
g279
aaa(lp296
S'images.{}.ask.com'
p297
a(lp298
g279
aaa(lp299
S'ask.reference.com'
p300
a(lp301
g279
aaa(lp302
S'www.askkids.com'
p303
a(lp304
g279
aaa(lp305
S'iwon.ask.com'
p306
a(lp307
g279
aaa(lp308
S'www.ask.co.uk'
p309
a(lp310
g279
aaa(lp311
S'{}.ask.com'
p312
a(lp313
g279
aaa(lp314
S'www.qbyrd.com'
p315
a(lp316
g279
aaa(lp317
S'{}.qbyrd.com'
p318
a(lp319
g279
aaa(lp320
S'www.search-results.com'
p321
a(lp322
g279
aaa(lp323
S'www1.search-results.com'
p324
a(lp325
g279
aaa(lp326
S'int.search-results.com'
p327
a(lp328
g279
aaa(lp329
S'{}.search-results.com'
p330
a(lp331
g279
aaa(lp332
S'search.ask.com'
p333
a(lp334
g279
aaa(lp335
S'{}.search.ask.com'
p336
a(lp337
g279
aaa(lp338
S'avira-int.ask.com'
p339
a(lp340
g279
aaa(lp341
S'searchqu.com'
p342
a(lp343
g279
aaa(lp344
S'search.tb.ask.com'
p345
a(lp346
g279
aaa(lp347
S'nortonsafe.search.ask.com'
p348
a(lp349
g279
aaa(lp350
S'safesearch.avira.com'
p351
a(lp352
g279
aaa(lp353
S'avira.search.ask.com'
p354
a(lp355
g279
aaa(lp356
S'int.search.tb.ask.com'
p357
a(lp358
g279
aaa(lp359
S'searchatlas.centrum.cz'
p360
a(lp361
S'Atlas'
p362
aS'q'
aS'?q={k}'
p363
aaa(lp364
S'search.auone.jp'
p365
a(lp366
S'auone'
p367
aS'q'
aS'?q={k}'
p368
aaa(lp369
S'sp-image.search.auone.jp'
p370
a(lp371
S'auone Images'
p372
aS'q'
aS'?q={k}'
p373
aaa(lp374
S'www2.austronaut.at'
p375
a(lp376
S'Austronaut'
p377
aS'q'
aaa(lp378
S'www1.austronaut.at'
p379
a(lp380
g377
aaa(lp381
S'search.babylon.com'
p382
a(lp383
S'Babylon'
p384
a(lp385
S'q'
aS'/\\/web\\/(.*)/'
p386
aaS'?q={k}'
p387
aaa(lp388
S'searchassist.babylon.com'
p389
a(lp390
g384
aaa(lp391
S'www.baidu.com'
p392
a(lp393
S'Baidu'
p394
a(lp395
S'wd'
p396
aS'word'
p397
aS'kw'
p398
aaS's?wd={k}'
p399
a(lp400
S'UTF-8'
p401
ag29
aaaa(lp402
S'bzclk.baidu.com'
p403
a(lp404
g394
a(lp405
g396
ag397
ag398
aaS's?wd={k}'
p406
a(lp407
S'UTF-8'
p408
ag29
aaaa(lp409
S'www1.baidu.com'
p410
a(lp411
g394
aaa(lp412
S'm.baidu.com'
p413
a(lp414
g394
aaa(lp415
S'www.baidu.co.th'
p416
a(lp417
g394
aaa(lp418
S'zhidao.baidu.com'
p419
a(lp420
g394
aaa(lp421
S'tieba.baidu.com'
p422
a(lp423
g394
aaa(lp424
S'news.baidu.com'
p425
a(lp426
g394
aaa(lp427
S'web.gougou.com'
p428
a(lp429
g394
aS'search'
p430
aS'search?search={k}'
p431
aaa(lp432
S'cgi.search.biglobe.ne.jp'
p433
a(lp434
S'Biglobe'
p435
aS'q'
aS'cgi-bin/search-st?q={k}'
p436
aaa(lp437
S'images.search.biglobe.ne.jp'
p438
a(lp439
S'Biglobe Images'
p440
aS'q'
aS'cgi-bin/search-st?q={k}'
p441
aaa(lp442
S'bing.com'
p443
a(lp444
S'Bing'
p445
a(lp446
S'q'
aS'Q'
aaS'search?q={k}'
p447
aaa(lp448
S'{}.bing.com'
p449
a(lp450
g445
aaa(lp451
S'msnbc.msn.com'
p452
a(lp453
g445
aaa(lp454
S'dizionario.it.msn.com'
p455
a(lp456
g445
aaa(lp457
S'enciclopedia.it.msn.com'
p458
a(lp459
g445
aaa(lp460
S'cc.bingj.com'
p461
a(lp462
g445
aaa(lp463
S'bing.com/images/search'
p464
a(lp465
S'Bing Images'
p466
a(lp467
S'q'
aS'Q'
aaS'?q={k}'
p468
aaa(lp469
S'{}.bing.com/images/search'
p470
a(lp471
S'Bing Images'
p472
aaa(lp473
S'blekko.com'
p474
a(lp475
S'blekko'
p476
a(lp477
S'q'
aS'/\\/ws\\/(.*)/'
p478
aaS'ws/{k}'
p479
aaa(lp480
S'www.blogdigger.com'
p481
a(lp482
S'Blogdigger'
p483
aS'q'
aaa(lp484
S'www.blogpulse.com'
p485
a(lp486
S'Blogpulse'
p487
ag129
aS'search?query={k}'
p488
aaa(lp489
S'search.bluewin.ch'
p490
a(lp491
S'Bluewin'
p492
a(lp493
S'searchTerm'
p494
aS'q'
aaS'v2/index.php?q={k}'
p495
aaa(lp496
S'web.canoe.ca'
p497
a(lp498
S'Canoe.ca'
p499
aS'q'
aS'search?q={k}'
p500
aaa(lp501
S'search.centrum.cz'
p502
a(lp503
S'Centrum'
p504
aS'q'
aS'?q={k}'
p505
aaa(lp506
S'morfeo.centrum.cz'
p507
a(lp508
g504
aaa(lp509
S'www.charter.net'
p510
a(lp511
S'Charter'
p512
aS'q'
aS'search/index.php?q={k}'
p513
aaa(lp514
S'claro-search.com'
p515
a(lp516
S'Claro Search'
p517
aS'q'
aS'?q={k}'
p518
aaa(lp519
S'pesquisa.clix.pt'
p520
a(lp521
S'Clix'
p522
aS'question'
p523
aS'resultado.html?in=Mundial&question={k}'
p524
aaa(lp525
S'search.conduit.com'
p526
a(lp527
S'Conduit.com'
p528
aS'q'
aS'Results.aspx?q={k}'
p529
aaa(lp530
S'images.search.conduit.com'
p531
a(lp532
S'Conduit.com'
p533
aaa(lp534
S'search.comcast.net'
p535
a(lp536
S'Comcast'
p537
aS'q'
aS'?q={k}'
p538
aaa(lp539
S'www.crawler.com'
p540
a(lp541
S'Crawler'
p542
aS'q'
aS'search/results1.aspx?q={k}'
p543
aaa(lp544
S'websearch.cs.com'
p545
a(lp546
S'Compuserve.com (Enhanced by Google)'
p547
ag129
aS'cs/search?query={k}'
p548
aaa(lp549
S'www.cuil.com'
p550
a(lp551
S'Cuil'
p552
aS'q'
aS'search?q={k}'
p553
aaa(lp554
S'daemon-search.com'
p555
a(lp556
S'Daemon search'
p557
aS'q'
aS'explore/web?q={k}'
p558
aaa(lp559
S'my.daemon-search.com'
p560
a(lp561
S'Daemon search'
p562
aaa(lp563
S'www.dasoertliche.de'
p564
a(lp565
S'DasOertliche'
p566
ag398
aaa(lp567
S'www2.dasoertliche.de'
p568
a(lp569
g566
a(lp570
S'ph'
p571
ag398
aaaa(lp572
S'www1.dastelefonbuch.de'
p573
a(lp574
S'DasTelefonbuch'
p575
ag398
aaa(lp576
S'search.daum.net'
p577
a(lp578
S'Daum'
p579
aS'q'
aS'search?q={k}'
p580
aaa(lp581
S'smart.delfi.lv'
p582
a(lp583
S'Delfi lv'
p584
aS'q'
aS'find?q={k}'
p585
aaa(lp586
S'otsing.delfi.ee'
p587
a(lp588
S'Delfi EE'
p589
aS'q'
aS'find?q={k}'
p590
aaa(lp591
S'digg.com'
p592
a(lp593
S'Digg'
p594
aS's'
aS'search?s={k}'
p595
aaa(lp596
S'fr.dir.com'
p597
a(lp598
S'dir.com'
p599
aS'req'
p600
aaa(lp601
S'dmoz.org'
p602
a(lp603
S'dmoz'
p604
ag430
aaa(lp605
S'editors.dmoz.org'
p606
a(lp607
g604
aaa(lp608
S'duckduckgo.com'
p609
a(lp610
S'DuckDuckGo'
p611
aS'q'
aS'?q={k}'
p612
aaa(lp613
S'r.duckduckgo.com'
p614
a(lp615
g611
aaa(lp616
S'search.earthlink.net'
p617
a(lp618
S'Earthlink'
p619
aS'q'
aS'search?q={k}'
p620
aaa(lp621
S'ecosia.org'
p622
a(lp623
S'Ecosia'
p624
aS'q'
aS'search.php?q={k}'
p625
aaa(lp626
S'www.eniro.se'
p627
a(lp628
S'Eniro'
p629
a(lp630
S'q'
aS'search_word'
p631
aaS'query?q={k}'
p632
aaa(lp633
S'www.eurip.com'
p634
a(lp635
S'Eurip'
p636
aS'q'
aS'search/?q={k}'
p637
aaa(lp638
S'www.euroseek.com'
p639
a(lp640
S'Euroseek'
p641
aS'string'
p642
aS'system/search.cgi?string={k}'
p643
aaa(lp644
S'www.everyclick.com'
p645
a(lp646
S'Everyclick'
p647
aS'keyword'
p648
aaa(lp649
S'search.excite.it'
p650
a(lp651
S'Excite'
p652
aS'q'
aS'web/?q={k}'
p653
aaa(lp654
S'search.excite.fr'
p655
a(lp656
g652
aaa(lp657
S'search.excite.de'
p658
a(lp659
g652
aaa(lp660
S'search.excite.co.uk'
p661
a(lp662
g652
aaa(lp663
S'search.excite.es'
p664
a(lp665
g652
aaa(lp666
S'search.excite.nl'
p667
a(lp668
g652
aaa(lp669
S'msxml.excite.com'
p670
a(lp671
g652
aS'/\\/[^\\/]+\\/ws\\/results\\/[^\\/]+\\/([^\\/]+)/'
p672
aaa(lp673
S'www.excite.co.jp'
p674
a(lp675
g652
ag430
aS'search.gw?search={k}'
p676
aS'SHIFT_JIS'
p677
aaa(lp678
S'www.exalead.fr'
p679
a(lp680
S'Exalead'
p681
aS'q'
aS'search/results?q={k}'
p682
aaa(lp683
S'www.exalead.com'
p684
a(lp685
g681
aaa(lp686
S'eo.st'
p687
a(lp688
S'eo'
p689
aS'x_query'
p690
aS'cgi-bin/eolost.cgi?x_query={k}'
p691
aaa(lp692
S'www.facebook.com'
p693
a(lp694
S'Facebook'
p695
aS'q'
aS'search/?q={k}'
p696
aaa(lp697
S'www.fastbrowsersearch.com'
p698
a(lp699
S'Fast Browser Search'
p700
aS'q'
aS'results/results.aspx?q={k}'
p701
aaa(lp702
S'recherche.francite.com'
p703
a(lp704
S'Francite'
p705
aS'name'
p706
aaa(lp707
S'www.findhurtig.dk'
p708
a(lp709
S'Findhurtig'
p710
aS'q'
aS'web?q={k}'
p711
aaa(lp712
S'www.fireball.de'
p713
a(lp714
S'Fireball'
p715
aS'q'
aS'ajax.asp?q={k}'
p716
aaa(lp717
S'www.firstsfind.com'
p718
a(lp719
S'Firstsfind'
p720
aS'qry'
p721
aaa(lp722
S'www.fixsuche.de'
p723
a(lp724
S'Fixsuche'
p725
aS'q'
aaa(lp726
S'www.flix.de'
p727
a(lp728
S'Flix.de'
p729
ag648
aaa(lp730
S'forestle.org'
p731
a(lp732
S'Forestle'
p733
aS'q'
aS'search.php?q={k}'
p734
aaa(lp735
S'{}.forestle.org'
p736
a(lp737
g733
aaa(lp738
S'forestle.mobi'
p739
a(lp740
g733
aaa(lp741
S'search.free.fr'
p742
a(lp743
S'Free'
p744
aS'q'
aaa(lp745
S'search1-2.free.fr'
p746
a(lp747
g744
aaa(lp748
S'search1-1.free.fr'
p749
a(lp750
g744
aaa(lp751
S'search.freecause.com'
p752
a(lp753
S'FreeCause'
p754
aS'p'
aS'?p={k}'
p755
aaa(lp756
S'suche.freenet.de'
p757
a(lp758
S'Freenet'
p759
a(lp760
g129
ag266
aaS'suche/?query={k}'
p761
aaa(lp762
S'friendfeed.com'
p763
a(lp764
S'FriendFeed'
p765
aS'q'
aS'search?q={k}'
p766
aaa(lp767
S'gais.cs.ccu.edu.tw'
p768
a(lp769
S'GAIS'
p770
aS'q'
aS'search.php?q={k}'
p771
aaa(lp772
S'search.genieo.com'
p773
a(lp774
S'Genieo'
p775
aS'q'
aS'&q={k}'
p776
aaa(lp777
S'geona.net'
p778
a(lp779
S'Geona'
p780
aS'q'
aS'search?q={k}'
p781
aaa(lp782
S'www.gigablast.com'
p783
a(lp784
S'Gigablast'
p785
aS'q'
aS'search?q={k}'
p786
aaa(lp787
S'dir.gigablast.com'
p788
a(lp789
S'Gigablast (Directory)'
p790
aS'q'
aaa(lp791
S'www.gnadenmeer.de'
p792
a(lp793
S'Gnadenmeer'
p794
ag648
aaa(lp795
S'www.gomeo.com'
p796
a(lp797
S'Gomeo'
p798
a(lp799
g266
aS'/\\/search\\/([^\\/]+)/'
p800
aaS'/search/{k}'
p801
aaa(lp802
S'search.goo.ne.jp'
p803
a(lp804
S'goo'
p805
aS'MT'
p806
aS'web.jsp?MT={k}'
p807
aaa(lp808
S'ocnsearch.goo.ne.jp'
p809
a(lp810
g805
aaa(lp811
S'google.com'
p812
a(lp813
S'Google'
p814
aS'q'
aS'search?q={k}'
p815
aaa(lp816
S'google.{}'
p817
a(lp818
g814
aaa(lp819
S'www2.google.com'
p820
a(lp821
g814
aaa(lp822
S'ipv6.google.com'
p823
a(lp824
g814
aaa(lp825
S'go.google.com'
p826
a(lp827
g814
aaa(lp828
S'wwwgoogle.com'
p829
a(lp830
g814
aaa(lp831
S'wwwgoogle.{}'
p832
a(lp833
g814
aaa(lp834
S'gogole.com'
p835
a(lp836
g814
aaa(lp837
S'gogole.{}'
p838
a(lp839
g814
aaa(lp840
S'gppgle.com'
p841
a(lp842
g814
aaa(lp843
S'gppgle.{}'
p844
a(lp845
g814
aaa(lp846
S'googel.com'
p847
a(lp848
g814
aaa(lp849
S'googel.{}'
p850
a(lp851
g814
aaa(lp852
S'search.avg.com'
p853
a(lp854
g814
aaa(lp855
S'isearch.avg.com'
p856
a(lp857
g814
aaa(lp858
S'www.cnn.com'
p859
a(lp860
g814
ag129
aaa(lp861
S'darkoogle.com'
p862
a(lp863
g814
aaa(lp864
S'search.darkoogle.com'
p865
a(lp866
g814
aaa(lp867
S'search.foxtab.com'
p868
a(lp869
g814
aaa(lp870
S'www.gooofullsearch.com'
p871
a(lp872
g814
ag266
aaa(lp873
S'search.hiyo.com'
p874
a(lp875
g814
aaa(lp876
S'search.incredimail.com'
p877
a(lp878
g814
aaa(lp879
S'search1.incredimail.com'
p880
a(lp881
g814
aaa(lp882
S'search2.incredimail.com'
p883
a(lp884
g814
aaa(lp885
S'search3.incredimail.com'
p886
a(lp887
g814
aaa(lp888
S'search4.incredimail.com'
p889
a(lp890
g814
aaa(lp891
S'search.sweetim.com'
p892
a(lp893
g814
aaa(lp894
S'www.fastweb.it'
p895
a(lp896
g814
aaa(lp897
S'search.juno.com'
p898
a(lp899
g814
ag129
aaa(lp900
S'find.tdc.dk'
p901
a(lp902
g814
aaa(lp903
S'it.luna.tv'
p904
a(lp905
g814
aaa(lp906
S'searchresults.verizon.com'
p907
a(lp908
g814
aaa(lp909
S'search.walla.co.il'
p910
a(lp911
g814
aaa(lp912
S'search.alot.com'
p913
a(lp914
g814
aaa(lp915
S'suche.gmx.net'
p916
a(lp917
g814
aS'q'
aS'web?q={k}'
p918
aaa(lp919
S'search.incredibar.com'
p920
a(lp921
g814
aS'q'
aS'search.php?q={k}'
p922
aaa(lp923
S'www.delta-search.com'
p924
a(lp925
g814
aS'q'
aaa(lp926
S'www1.delta-search.com'
p927
a(lp928
g814
aS'q'
aaa(lp929
S'search.1und1.de'
p930
a(lp931
g814
aS'q'
aS'web?q={k}'
p932
aaa(lp933
S'suche.1und1.de'
p934
a(lp935
g814
aS'q'
aS'web?q={k}'
p936
aaa(lp937
S'search.zonealarm.com'
p938
a(lp939
g814
aaa(lp940
S'start.lenovo.com'
p941
a(lp942
g814
aS'q'
aS'search/index.php?q={k}'
p943
aaa(lp944
S'wow.com'
p945
a(lp946
g814
aaa(lp947
S'{}.wow.com'
p948
a(lp949
g814
aaa(lp950
S'search.leonardo.it'
p951
a(lp952
g814
aaa(lp953
S'www.optuszoo.com.au'
p954
a(lp955
g814
aaa(lp956
S'search.dolphin-browser.jp'
p957
a(lp958
g814
aaa(lp959
S'search.smt.docomo.ne.jp'
p960
a(lp961
g814
ag806
aaa(lp962
S'image.search.smt.docomo.ne.jp'
p963
a(lp964
g814
ag806
aaa(lp965
S'gfsoso.com'
p966
a(lp967
g814
aS'q'
aaa(lp968
S'searches.safehomepage.com'
p969
a(lp970
g814
aS'q'
aaa(lp971
S'searches.f-secure.com'
p972
a(lp973
g814
ag129
aS'search?query={k}'
p974
aaa(lp975
S'startgoogle.startpagina.nl'
p976
a(lp977
S'Startpagina (Google)'
p978
aS'q'
aS'?q={k}'
p979
aaa(lp980
S'webcache.googleusercontent.com'
p981
a(lp982
g814
aS'/\\/search\\?q=cache:[A-Za-z0-9]+:[^+]+([^&]+)/'
p983
aS'search?q={k}'
p984
aaa(lp985
S'encrypted.google.com'
p986
a(lp987
S'Google SSL'
p988
aS'q'
aS'search?q={k}'
p989
aaa(lp990
S'blogsearch.google.com'
p991
a(lp992
S'Google Blogsearch'
p993
aS'q'
aS'blogsearch?q={k}'
p994
aaa(lp995
S'blogsearch.google.{}'
p996
a(lp997
S'Google Blogsearch'
p998
aaa(lp999
S'google.com/cse'
p1000
a(lp1001
S'Google Custom Search'
p1002
a(lp1003
S'q'
ag129
aaaa(lp1004
S'google.{}/cse'
p1005
a(lp1006
S'Google Custom Search'
p1007
aaa(lp1008
S'google.com/custom'
p1009
a(lp1010
S'Google Custom Search'
p1011
aaa(lp1012
S'google.{}/custom'
p1013
a(lp1014
S'Google Custom Search'
p1015
aaa(lp1016
S'translate.google.com'
p1017
a(lp1018
S'Google Translations'
p1019
aS'q'
aaa(lp1020
S'images.google.com'
p1021
a(lp1022
S'Google Images'
p1023
aS'q'
aS'images?q={k}'
p1024
aaa(lp1025
S'images.google.{}'
p1026
a(lp1027
S'Google Images'
p1028
aaa(lp1029
S'maps.google.com'
p1030
a(lp1031
S'Google Maps'
p1032
aS'q'
aS'maps?q={k}'
p1033
aaa(lp1034
S'maps.google.{}'
p1035
a(lp1036
S'Google Maps'
p1037
aaa(lp1038
S'news.google.com'
p1039
a(lp1040
S'Google News'
p1041
aS'q'
aaa(lp1042
S'news.google.{}'
p1043
a(lp1044
S'Google News'
p1045
aaa(lp1046
S'google.com/products'
p1047
a(lp1048
S'Google Shopping'
p1049
aS'q'
aS'?q={k}&tbm=shop'
p1050
aaa(lp1051
S'google.{}/products'
p1052
a(lp1053
S'Google Shopping'
p1054
aaa(lp1055
S'googlesyndicatedsearch.com'
p1056
a(lp1057
S'Google syndicated search'
p1058
aS'q'
aaa(lp1059
S'video.google.com'
p1060
a(lp1061
S'Google Video'
p1062
aS'q'
aS'search?q={k}&tbm=vid'
p1063
aaa(lp1064
S'scholar.google.com'
p1065
a(lp1066
S'Google Scholar'
p1067
aS'q'
aS'scholar?q={k}'
p1068
aaa(lp1069
S'scholar.google.{}'
p1070
a(lp1071
S'Google Scholar'
p1072
aaa(lp1073
S'www.goyellow.de'
p1074
a(lp1075
S'GoYellow.de'
p1076
aS'MDN'
p1077
aaa(lp1078
S'www.gulesider.no'
p1079
a(lp1080
S'Gule Sider'
p1081
aS'q'
aaa(lp1082
S'www.haosou.com'
p1083
a(lp1084
S'Haosou'
p1085
aS'q'
aS's?q={k}'
p1086
aaa(lp1087
S'www.highbeam.com'
p1088
a(lp1089
S'HighBeam'
p1090
aS'q'
aS'Search.aspx?q={k}'
p1091
aaa(lp1092
S'req.hit-parade.com'
p1093
a(lp1094
S'Hit-Parade'
p1095
aS'p7'
p1096
aS'general/recherche.asp?p7={k}'
p1097
aaa(lp1098
S'class.hit-parade.com'
p1099
a(lp1100
S'Hit-Parade'
p1101
aaa(lp1102
S'www.hit-parade.com'
p1103
a(lp1104
S'Hit-Parade'
p1105
aaa(lp1106
S'holmes.ge'
p1107
a(lp1108
S'Holmes'
p1109
aS'q'
aS'search.htm?q={k}'
p1110
aaa(lp1111
S'www.hooseek.com'
p1112
a(lp1113
S'Hooseek'
p1114
aS'recherche'
p1115
aS'web?recherche={k}'
p1116
aaa(lp1117
S'www.hotbot.com'
p1118
a(lp1119
S'Hotbot'
p1120
ag129
aaa(lp1121
S'blogs.icerocket.com'
p1122
a(lp1123
S'Icerocket'
p1124
aS'q'
aS'search?q={k}'
p1125
aaa(lp1126
S'www.icq.com'
p1127
a(lp1128
S'ICQ'
p1129
aS'q'
aS'search/results.php?q={k}'
p1130
aaa(lp1131
S'search.icq.com'
p1132
a(lp1133
g1129
aaa(lp1134
S'www.ilse.nl'
p1135
a(lp1136
S'Ilse NL'
p1137
aS'search_for'
p1138
aS'?search_for={k}'
p1139
aaa(lp1140
S'search.imesh.com'
p1141
a(lp1142
S'iMesh'
p1143
a(lp1144
S'q'
aS'si'
p1145
aaS'web?q={k}'
p1146
aaa(lp1147
S'www2.inbox.com'
p1148
a(lp1149
S'Inbox'
p1150
aS'q'
aS'search/results1.aspx?q={k}'
p1151
aaa(lp1152
S'infospace.com'
p1153
a(lp1154
S'InfoSpace'
p1155
aS'q'
aS'/search/web?q={k}'
p1156
aaa(lp1157
S'dogpile.com'
p1158
a(lp1159
g1155
aaa(lp1160
S'tattoodle.com'
p1161
a(lp1162
g1155
aaa(lp1163
S'metacrawler.com'
p1164
a(lp1165
g1155
aaa(lp1166
S'webfetch.com'
p1167
a(lp1168
g1155
aaa(lp1169
S'webcrawler.com'
p1170
a(lp1171
g1155
aaa(lp1172
S'search.kiwee.com'
p1173
a(lp1174
g1155
aaa(lp1175
S'searches.vi-view.com'
p1176
a(lp1177
g1155
aaa(lp1178
S'search.webssearches.com'
p1179
a(lp1180
g1155
aaa(lp1181
S'search.fbdownloader.com'
p1182
a(lp1183
g1155
aaa(lp1184
S'searches3.globososo.com'
p1185
a(lp1186
g1155
aaa(lp1187
S'wsdsold.infospace.com'
p1188
a(lp1189
g1155
aS'/\\/[^\\/]+\\/ws\\/results\\/[^\\/]+\\/([^\\/]+)/'
p1190
aS'pemonitorhosted/ws/results/Web/{k}/1/417/TopNavigation/Source/'
p1191
aaa(lp1192
S'isearch.babylon.com'
p1193
a(lp1194
g1155
aS'q'
aaa(lp1195
S'start.facemoods.com'
p1196
a(lp1197
g1155
aS's'
aaa(lp1198
S'start.funmoods.com'
p1199
a(lp1200
g1155
aS'q'
aaa(lp1201
S'search.magentic.com'
p1202
a(lp1203
g1155
aS'q'
aaa(lp1204
S'search.searchcompletion.com'
p1205
a(lp1206
g1155
aS'q'
aaa(lp1207
S'www.searchmobileonline.com'
p1208
a(lp1209
g1155
aS'q'
aaa(lp1210
S'isearch.glarysoft.com'
p1211
a(lp1212
g1155
aS'q'
aaa(lp1213
S'search.chatzum.com'
p1214
a(lp1215
g1155
aS'q'
aaa(lp1216
S'home.speedbit.com'
p1217
a(lp1218
g1155
aS'q'
aaa(lp1219
S'search.b1.org'
p1220
a(lp1221
g1155
aS'q'
aaa(lp1222
S'searchya.com'
p1223
a(lp1224
g1155
aS'q'
aaa(lp1225
S'search.handycafe.com'
p1226
a(lp1227
g1155
aS'q'
aaa(lp1228
S'search.v9.com'
p1229
a(lp1230
g1155
aS'q'
aaa(lp1231
S'search.iminent.com'
p1232
a(lp1233
g1155
aS'q'
aaa(lp1234
S'utorrent.inspsearch.com'
p1235
a(lp1236
g1155
aS'q'
aaa(lp1237
S'www.google.interia.pl'
p1238
a(lp1239
S'Interia'
p1240
aS'q'
aS'szukaj?q={k}'
p1241
aaa(lp1242
S'start.iplay.com'
p1243
a(lp1244
S'I-play'
p1245
aS'q'
aS'searchresults.aspx?q={k}'
p1246
aaa(lp1247
S'ixquick.com'
p1248
a(lp1249
S'Ixquick'
p1250
ag129
aaa(lp1251
S'www.eu.ixquick.com'
p1252
a(lp1253
g1250
aaa(lp1254
S'ixquick.de'
p1255
a(lp1256
g1250
aaa(lp1257
S'www.ixquick.de'
p1258
a(lp1259
g1250
aaa(lp1260
S'us.ixquick.com'
p1261
a(lp1262
g1250
aaa(lp1263
S's1.us.ixquick.com'
p1264
a(lp1265
g1250
aaa(lp1266
S's2.us.ixquick.com'
p1267
a(lp1268
g1250
aaa(lp1269
S's3.us.ixquick.com'
p1270
a(lp1271
g1250
aaa(lp1272
S's4.us.ixquick.com'
p1273
a(lp1274
g1250
aaa(lp1275
S's5.us.ixquick.com'
p1276
a(lp1277
g1250
aaa(lp1278
S'eu.ixquick.com'
p1279
a(lp1280
g1250
aaa(lp1281
S's8-eu.ixquick.com'
p1282
a(lp1283
g1250
aaa(lp1284
S's1-eu.ixquick.de'
p1285
a(lp1286
g1250
aaa(lp1287
S's2-eu4.ixquick.com'
p1288
a(lp1289
g1250
aaa(lp1290
S's5-eu4.ixquick.com'
p1291
a(lp1292
g1250
aaa(lp1293
S'jyxo.1188.cz'
p1294
a(lp1295
S'Jyxo'
p1296
aS'q'
aS's?q={k}'
p1297
aaa(lp1298
S'www.jungle-spider.de'
p1299
a(lp1300
S'Jungle Spider'
p1301
aS'q'
aaa(lp1302
S'junglekey.com'
p1303
a(lp1304
S'Jungle Key'
p1305
ag129
aS'search.php?query={k}&type=web&lang=en'
p1306
aaa(lp1307
S'junglekey.fr'
p1308
a(lp1309
S'Jungle Key'
p1310
aaa(lp1311
S'k9safesearch.com'
p1312
a(lp1313
S'K9 Safe Search'
p1314
aS'q'
aS'search.jsp?q={k}'
p1315
aaa(lp1316
S'www.kataweb.it'
p1317
a(lp1318
S'Kataweb'
p1319
aS'q'
aaa(lp1320
S'www.kvasir.no'
p1321
a(lp1322
S'Kvasir'
p1323
aS'q'
aS'alle?q={k}'
p1324
aaa(lp1325
S'www.latne.lv'
p1326
a(lp1327
S'Latne'
p1328
aS'q'
aS'siets.php?q={k}'
p1329
aaa(lp1330
S'www.toile.com'
p1331
a(lp1332
S'La Toile Du Qu\xc3\xa9bec (Google)'
p1333
aS'q'
aS'search?q={k}'
p1334
aaa(lp1335
S'web.toile.com'
p1336
a(lp1337
S'La Toile Du Qu\xc3\xa9bec (Google)'
p1338
aaa(lp1339
S'www.lookany.com'
p1340
a(lp1341
S'LookAny'
p1342
aS'/(?:search|images|videos)\\/([^\\/]+)/'
p1343
aaa(lp1344
S'www.looksmart.com'
p1345
a(lp1346
S'Looksmart'
p1347
aS'key'
p1348
aaa(lp1349
S'lo.st'
p1350
a(lp1351
S'Lo.st'
p1352
ag690
aS'cgi-bin/eolost.cgi?x_query={k}'
p1353
aaa(lp1354
S'search.lycos.com'
p1355
a(lp1356
S'Lycos'
p1357
ag129
aS'?query={k}'
p1358
aaa(lp1359
S'lycos.{}'
p1360
a(lp1361
g1357
aaa(lp1362
S'www.maailm.com'
p1363
a(lp1364
S'maailm.com'
p1365
aS'tekst'
p1366
aaa(lp1367
S'go.mail.ru'
p1368
a(lp1369
S'Mailru'
p1370
aS'q'
aS'search?rch=e&q={k}'
p1371
a(lp1372
S'UTF-8'
p1373
aS'windows-1251'
p1374
aaaa(lp1375
S'www.mamma.com'
p1376
a(lp1377
S'Mamma'
p1378
ag129
aS'result.php?q={k}'
p1379
aaa(lp1380
S'mamma75.mamma.com'
p1381
a(lp1382
g1378
aaa(lp1383
S'meta.ua'
p1384
a(lp1385
S'Meta.ua'
p1386
aS'q'
aS'search.asp?q={k}'
p1387
aaa(lp1388
S's1.metacrawler.de'
p1389
a(lp1390
S'MetaCrawler DE'
p1391
ag721
aS'?qry={k}'
p1392
aaa(lp1393
S's2.metacrawler.de'
p1394
a(lp1395
S'MetaCrawler DE'
p1396
aaa(lp1397
S's3.metacrawler.de'
p1398
a(lp1399
S'MetaCrawler DE'
p1400
aaa(lp1401
S'meta.rrzn.uni-hannover.de'
p1402
a(lp1403
S'Metager'
p1404
aS'eingabe'
p1405
aS'meta/cgi-bin/meta.ger1?eingabe={k}'
p1406
aaa(lp1407
S'www.metager.de'
p1408
a(lp1409
g1404
aaa(lp1410
S'metager.de'
p1411
a(lp1412
g1404
aaa(lp1413
S'metager2.de'
p1414
a(lp1415
S'Metager2'
p1416
aS'q'
aS'search/index.php?q={k}'
p1417
aaa(lp1418
S'www.meinestadt.de'
p1419
a(lp1420
S'Meinestadt.de'
p1421
ag112
aaa(lp1422
S'www.mister-wong.com'
p1423
a(lp1424
S'Mister Wong'
p1425
aS'keywords'
p1426
aS'search/?keywords={k}'
p1427
aaa(lp1428
S'www.mister-wong.de'
p1429
a(lp1430
S'Mister Wong'
p1431
aaa(lp1432
S'www.monstercrawler.com'
p1433
a(lp1434
S'Monstercrawler'
p1435
ag721
aaa(lp1436
S'www.mozbot.fr'
p1437
a(lp1438
S'mozbot'
p1439
aS'q'
aS'results.php?q={k}'
p1440
aaa(lp1441
S'www.mozbot.co.uk'
p1442
a(lp1443
g1439
aaa(lp1444
S'www.mozbot.com'
p1445
a(lp1446
g1439
aaa(lp1447
S'ariadna.elmundo.es'
p1448
a(lp1449
S'El Mundo'
p1450
aS'q'
aaa(lp1451
S'searchservice.myspace.com'
p1452
a(lp1453
S'MySpace'
p1454
ag721
aS'index.cfm?fuseaction=sitesearch.results&type=Web&qry={k}'
p1455
aaa(lp1456
S'www.mysearch.com'
p1457
a(lp1458
S'MyWebSearch'
p1459
a(lp1460
g282
aS'searchFor'
p1461
aaS'search/Ajmain.jhtml?searchfor={k}'
p1462
aaa(lp1463
S'ms114.mysearch.com'
p1464
a(lp1465
g1459
aaa(lp1466
S'ms146.mysearch.com'
p1467
a(lp1468
g1459
aaa(lp1469
S'kf.mysearch.myway.com'
p1470
a(lp1471
g1459
aaa(lp1472
S'ki.mysearch.myway.com'
p1473
a(lp1474
g1459
aaa(lp1475
S'search.myway.com'
p1476
a(lp1477
g1459
aaa(lp1478
S'search.mywebsearch.com'
p1479
a(lp1480
g1459
aaa(lp1481
S'www.najdi.si'
p1482
a(lp1483
S'Najdi.si'
p1484
aS'q'
aS'search.jsp?q={k}'
p1485
aaa(lp1486
S'search.nate.com'
p1487
a(lp1488
S'Nate'
p1489
aS'q'
aS'search/all.html?q={k}'
p1490
aS'EUC-KR'
p1491
aaa(lp1492
S'search.naver.com'
p1493
a(lp1494
S'Naver'
p1495
ag129
aS'search.naver?query={k}'
p1496
aaa(lp1497
S'ko.search.need2find.com'
p1498
a(lp1499
S'Needtofind'
p1500
ag282
aS'search/AJmain.jhtml?searchfor={k}'
p1501
aaa(lp1502
S'www.neti.ee'
p1503
a(lp1504
S'Neti'
p1505
ag129
aS'cgi-bin/otsing?query={k}'
p1506
aS'iso-8859-1'
p1507
aaa(lp1508
S'search.nifty.com'
p1509
a(lp1510
S'Nifty'
p1511
a(lp1512
S'q'
aS'Text'
p1513
aaS'websearch/search?q={k}'
p1514
aaa(lp1515
S'search.azby.fmworld.net'
p1516
a(lp1517
g1511
aaa(lp1518
S'videosearch.nifty.com'
p1519
a(lp1520
S'Nifty Videos'
p1521
ag398
aS'search?kw={k}'
p1522
aaa(lp1523
S'nigma.ru'
p1524
a(lp1525
S'Nigma'
p1526
aS's'
aS'index.php?s={k}'
p1527
aaa(lp1528
S'szukaj.onet.pl'
p1529
a(lp1530
S'Onet.pl'
p1531
aS'qt'
p1532
aS'query.html?qt={k}'
p1533
aaa(lp1534
S'online.no'
p1535
a(lp1536
S'Online.no'
p1537
aS'q'
aS'google/index.jsp?q={k}'
p1538
aaa(lp1539
S'www.1881.no'
p1540
a(lp1541
S'Opplysningen 1881'
p1542
aS'Query'
p1543
aS'Multi/?Query={k}'
p1544
aaa(lp1545
S'busca.orange.es'
p1546
a(lp1547
S'Orange'
p1548
aS'q'
aS'search?q={k}'
p1549
aaa(lp1550
S'lemoteur.ke.voila.fr'
p1551
a(lp1552
g1548
ag398
aS'?kw={k}'
p1553
aaa(lp1554
S'www.paperball.de'
p1555
a(lp1556
S'Paperball'
p1557
aS'q'
aS'suche/s/?q={k}'
p1558
aaa(lp1559
S'search.peoplepc.com'
p1560
a(lp1561
S'PeoplePC'
p1562
aS'q'
aS'search?q={k}'
p1563
aaa(lp1564
S'extern.peoplecheck.de'
p1565
a(lp1566
S'PeopleCheck'
p1567
aS'q'
aS'link.php?q={k}'
p1568
aaa(lp1569
S'www.picsearch.com'
p1570
a(lp1571
S'Picsearch'
p1572
aS'q'
aS'index.cgi?q={k}'
p1573
aaa(lp1574
S'www.plazoo.com'
p1575
a(lp1576
S'Plazoo'
p1577
aS'q'
aaa(lp1578
S'plusnetwork.com'
p1579
a(lp1580
S'PlusNetwork'
p1581
aS'q'
aS'?q={k}'
p1582
aaa(lp1583
S'poisk.ru'
p1584
a(lp1585
S'Poisk.Ru'
p1586
aS'text'
p1587
aS'cgi-bin/poisk?text={k}'
p1588
aS'windows-1251'
p1589
aaa(lp1590
S'search.qip.ru'
p1591
a(lp1592
S'qip.ru'
p1593
ag129
aS'search?query={k}'
p1594
aaa(lp1595
S'www.qualigo.at'
p1596
a(lp1597
S'Qualigo'
p1598
aS'q'
aaa(lp1599
S'www.qualigo.ch'
p1600
a(lp1601
g1598
aaa(lp1602
S'www.qualigo.de'
p1603
a(lp1604
g1598
aaa(lp1605
S'www.qualigo.nl'
p1606
a(lp1607
g1598
aaa(lp1608
S'www.qwant.com'
p1609
a(lp1610
S'Qwant'
p1611
aS'q'
aaa(lp1612
S'websearch.rakuten.co.jp'
p1613
a(lp1614
S'Rakuten'
p1615
ag1532
aS'WebIS?qt={k}'
p1616
aaa(lp1617
S'nova.rambler.ru'
p1618
a(lp1619
S'Rambler'
p1620
a(lp1621
g129
ag112
aaS'search?query={k}'
p1622
aaa(lp1623
S'rpmfind.net'
p1624
a(lp1625
S'rpmfind'
p1626
ag129
aS'linux/rpm2html/search.php?query={k}'
p1627
aaa(lp1628
S'fr2.rpmfind.net'
p1629
a(lp1630
g1626
aaa(lp1631
S'search.rr.com'
p1632
a(lp1633
S'Road Runner'
p1634
aS'q'
aS'?q={k}'
p1635
aaa(lp1636
S'pesquisa.sapo.pt'
p1637
a(lp1638
S'Sapo'
p1639
aS'q'
aS'?q={k}'
p1640
aaa(lp1641
S'scour.com'
p1642
a(lp1643
S'Scour.com'
p1644
aS'/search\\/[^\\/]+\\/(.*)/'
p1645
aS'search/web/{k}'
p1646
aaa(lp1647
S'www.search.com'
p1648
a(lp1649
S'Search.com'
p1650
aS'q'
aS'search?q={k}'
p1651
aaa(lp1652
S'www.search.ch'
p1653
a(lp1654
S'Search.ch'
p1655
aS'q'
aS'?q={k}'
p1656
aaa(lp1657
S'searchalot.com'
p1658
a(lp1659
S'Searchalot'
p1660
aS'q'
aS'?q={k}'
p1661
aaa(lp1662
S'www.searchcanvas.com'
p1663
a(lp1664
S'SearchCanvas'
p1665
aS'q'
aS'web?q={k}'
p1666
aaa(lp1667
S'www.searchy.co.uk'
p1668
a(lp1669
S'Searchy'
p1670
aS'q'
aS'index.html?q={k}'
p1671
aaa(lp1672
S'bg.setooz.com'
p1673
a(lp1674
S'Setooz'
p1675
ag129
aS'search?query={k}'
p1676
aaa(lp1677
S'da.setooz.com'
p1678
a(lp1679
g1675
aaa(lp1680
S'el.setooz.com'
p1681
a(lp1682
g1675
aaa(lp1683
S'fa.setooz.com'
p1684
a(lp1685
g1675
aaa(lp1686
S'ur.setooz.com'
p1687
a(lp1688
g1675
aaa(lp1689
S'{}.setooz.com'
p1690
a(lp1691
g1675
aaa(lp1692
S'search.seznam.cz'
p1693
a(lp1694
S'Seznam'
p1695
aS'q'
aS'?q={k}'
p1696
aaa(lp1697
S'videa.seznam.cz'
p1698
a(lp1699
S'Seznam Videa'
p1700
aS'q'
aS'?q={k}'
p1701
aaa(lp1702
S'www.sharelook.fr'
p1703
a(lp1704
S'Sharelook'
p1705
ag648
aaa(lp1706
S'www.skynet.be'
p1707
a(lp1708
S'Skynet'
p1709
aS'q'
aS'services/recherche/google?q={k}'
p1710
aaa(lp1711
S'm.sm.cn'
p1712
a(lp1713
S'sm.cn'
p1714
aS'q'
aS's?q={k}'
p1715
aaa(lp1716
S'so.m.sm.cn'
p1717
a(lp1718
S'sm.cn'
p1719
aS'q'
aS's?q={k}'
p1720
aaa(lp1721
S'm.sp.sm.cn'
p1722
a(lp1723
S'sm.cn'
p1724
aaa(lp1725
S'www.sm.de'
p1726
a(lp1727
S'sm.de'
p1728
aS'q'
aS'?q={k}'
p1729
aaa(lp1730
S'search.smartaddressbar.com'
p1731
a(lp1732
S'SmartAddressbar'
p1733
aS's'
aS'?s={k}'
p1734
aaa(lp1735
S'search.snap.do'
p1736
a(lp1737
S'Snap.do'
p1738
aS'q'
aS'?q={k}'
p1739
aaa(lp1740
S'search.seesaa.jp'
p1741
a(lp1742
S'SeeSaa'
p1743
aS'/\\/([^\\/]+)\\/index\\.html/'
p1744
aS'{k}/index.html'
p1745
aaa(lp1746
S'www.so-net.ne.jp'
p1747
a(lp1748
S'So-net'
p1749
ag129
aS'search/web/?query={k}'
p1750
aaa(lp1751
S'video.so-net.ne.jp'
p1752
a(lp1753
S'So-net Videos'
p1754
ag398
aS'search/?kw={k}'
p1755
aaa(lp1756
S'www.sogou.com'
p1757
a(lp1758
S'Sogou'
p1759
ag129
aS'web?query={k}'
p1760
ag29
aaa(lp1761
S'm.sogou.com'
p1762
a(lp1763
g1759
ag648
aaa(lp1764
S'search.softonic.com'
p1765
a(lp1766
S'Softonic'
p1767
aS'q'
aS'default/default?q={k}'
p1768
aaa(lp1769
S'www.soso.com'
p1770
a(lp1771
S'Soso'
p1772
aS'w'
aS'q?w={k}'
p1773
ag29
aaa(lp1774
S'www.sputnik.ru'
p1775
a(lp1776
S'Sputnik'
p1777
aS'q'
aS'search?q={k}'
p1778
aaa(lp1779
S'www.startsiden.no'
p1780
a(lp1781
S'Startsiden'
p1782
aS'q'
aS'sok/index.html?q={k}'
p1783
aaa(lp1784
S'suche.info'
p1785
a(lp1786
S'Suche.info'
p1787
ag266
aS'suche.php?Keywords={k}'
p1788
aaa(lp1789
S'www.suchmaschine.com'
p1790
a(lp1791
S'Suchmaschine.com'
p1792
aS'suchstr'
p1793
aS'cgi-bin/wo.cgi?suchstr={k}'
p1794
aaa(lp1795
S'www.suchnase.de'
p1796
a(lp1797
S'Suchnase'
p1798
aS'q'
aaa(lp1799
S'surfcanyon.com'
p1800
a(lp1801
S'Surf Canyon'
p1802
aS'q'
aaa(lp1803
S'www.talimba.com'
p1804
a(lp1805
S'talimba'
p1806
ag430
aS'index.php?page=search/web&search={k}'
p1807
aaa(lp1808
S'www.talktalk.co.uk'
p1809
a(lp1810
S'TalkTalk'
p1811
ag129
aS'search/results.html?query={k}'
p1812
aaa(lp1813
S'technorati.com'
p1814
a(lp1815
S'Technorati'
p1816
aS'q'
aS'search?return=sites&authority=all&q={k}'
p1817
aaa(lp1818
S'www.teoma.com'
p1819
a(lp1820
S'Teoma'
p1821
aS'q'
aS'web?q={k}'
p1822
aaa(lp1823
S'buscador.terra.es'
p1824
a(lp1825
S'Terra'
p1826
ag129
aS'Default.aspx?source=Search&query={k}'
p1827
aaa(lp1828
S'buscador.terra.cl'
p1829
a(lp1830
g1826
aaa(lp1831
S'buscador.terra.com.br'
p1832
a(lp1833
g1826
aaa(lp1834
S'search.tiscali.it'
p1835
a(lp1836
S'Tiscali'
p1837
a(lp1838
S'q'
ag1348
aaS'?q={k}'
p1839
aaa(lp1840
S'search-dyn.tiscali.it'
p1841
a(lp1842
g1837
aaa(lp1843
S'hledani.tiscali.cz'
p1844
a(lp1845
g1837
ag129
aaa(lp1846
S'www.tixuma.de'
p1847
a(lp1848
S'Tixuma'
p1849
aS'sc'
p1850
aS'index.php?mp=search&stp=&sc={k}&tg=0'
p1851
aaa(lp1852
S'suche.t-online.de'
p1853
a(lp1854
S'T-Online'
p1855
aS'q'
aS'fast-cgi/tsc?mandant=toi&context=internet-tab&q={k}'
p1856
aaa(lp1857
S'brisbane.t-online.de'
p1858
a(lp1859
S'T-Online'
p1860
aaa(lp1861
S'navigationshilfe.t-online.de'
p1862
a(lp1863
S'T-Online'
p1864
aS'q'
aS'dtag/dns/results?mode=search_top&q={k}'
p1865
aaa(lp1866
S'www.toolbarhome.com'
p1867
a(lp1868
S'Toolbarhome'
p1869
aS'q'
aS'search.aspx?q={k}'
p1870
aaa(lp1871
S'vshare.toolbarhome.com'
p1872
a(lp1873
g1869
aaa(lp1874
S'www.toppreise.ch'
p1875
a(lp1876
S'Toppreise.ch'
p1877
ag430
aS'index.php?search={k}'
p1878
aS'ISO-8859-1'
p1879
aaa(lp1880
S'toppreise.ch'
p1881
a(lp1882
S'Toppreise.ch'
p1883
aNaNaS'ISO-8859-1'
p1884
aaa(lp1885
S'fr.toppreise.ch'
p1886
a(lp1887
S'Toppreise.ch'
p1888
aNaNaS'ISO-8859-1'
p1889
aaa(lp1890
S'de.toppreise.ch'
p1891
a(lp1892
S'Toppreise.ch'
p1893
aNaNaS'ISO-8859-1'
p1894
aaa(lp1895
S'en.toppreise.ch'
p1896
a(lp1897
S'Toppreise.ch'
p1898
aNaNaS'ISO-8859-1'
p1899
aaa(lp1900
S'www.trouvez.com'
p1901
a(lp1902
S'Trouvez.com'
p1903
ag129
aaa(lp1904
S'www.trovarapido.com'
p1905
a(lp1906
S'TrovaRapido'
p1907
aS'q'
aS'result.php?q={k}'
p1908
aaa(lp1909
S'www.trusted-search.com'
p1910
a(lp1911
S'Trusted Search'
p1912
aS'w'
aS'search?w={k}'
p1913
aaa(lp1914
S'www.twingly.com'
p1915
a(lp1916
S'Twingly'
p1917
aS'q'
aS'search?q={k}'
p1918
aaa(lp1919
S'busca.uol.com.br'
p1920
a(lp1921
S'uol.com.br'
p1922
aS'q'
aS'/web/?q={k}'
p1923
aaa(lp1924
S'www.url.org'
p1925
a(lp1926
S'URL.ORGanzier'
p1927
aS'q'
aS'?l=de&q={k}'
p1928
aaa(lp1929
S'www.vinden.nl'
p1930
a(lp1931
S'Vinden'
p1932
aS'q'
aS'?q={k}'
p1933
aaa(lp1934
S'www.vindex.nl'
p1935
a(lp1936
S'Vindex'
p1937
ag1138
aS'/web?search_for={k}'
p1938
aaa(lp1939
S'search.vindex.nl'
p1940
a(lp1941
g1937
aaa(lp1942
S'ricerca.virgilio.it'
p1943
a(lp1944
S'Virgilio'
p1945
ag106
aS'ricerca?qs={k}'
p1946
aaa(lp1947
S'ricercaimmagini.virgilio.it'
p1948
a(lp1949
g1945
aaa(lp1950
S'ricercavideo.virgilio.it'
p1951
a(lp1952
g1945
aaa(lp1953
S'ricercanews.virgilio.it'
p1954
a(lp1955
g1945
aaa(lp1956
S'mobile.virgilio.it'
p1957
a(lp1958
g1945
aS'qrs'
p1959
aaa(lp1960
S'search.ke.voila.fr'
p1961
a(lp1962
S'Voila'
p1963
aS'rdata'
p1964
aS'S/voila?rdata={k}'
p1965
aaa(lp1966
S'www.lemoteur.fr'
p1967
a(lp1968
g1963
aaa(lp1969
S'web.volny.cz'
p1970
a(lp1971
S'Volny'
p1972
ag430
aS'fulltext/?search={k}'
p1973
aS'windows-1250'
p1974
aaa(lp1975
S'www.walhello.info'
p1976
a(lp1977
S'Walhello'
p1978
ag1348
aS'search?key={k}'
p1979
aaa(lp1980
S'www.walhello.com'
p1981
a(lp1982
g1978
aaa(lp1983
S'www.walhello.de'
p1984
a(lp1985
g1978
aaa(lp1986
S'www.walhello.nl'
p1987
a(lp1988
g1978
aaa(lp1989
S'suche.web.de'
p1990
a(lp1991
S'Web.de'
p1992
a(lp1993
S'su'
p1994
aS'q'
aaS'search/web/?su={k}'
p1995
aaa(lp1996
S'm.suche.web.de'
p1997
a(lp1998
S'Web.de'
p1999
aaa(lp2000
S'www.web.nl'
p2001
a(lp2002
S'Web.nl'
p2003
aS'zoekwoord'
p2004
aaa(lp2005
S'www.weborama.fr'
p2006
a(lp2007
S'weborama'
p2008
aS'QUERY'
p2009
aaa(lp2010
S'www.websearch.com'
p2011
a(lp2012
S'WebSearch'
p2013
a(lp2014
S'qkw'
p2015
aS'q'
aaS'search/results2.aspx?q={k}'
p2016
aaa(lp2017
S'fr.wedoo.com'
p2018
a(lp2019
S'Wedoo'
p2020
ag648
aaa(lp2021
S'en.wedoo.com'
p2022
a(lp2023
g2020
aaa(lp2024
S'es.wedoo.com'
p2025
a(lp2026
g2020
aaa(lp2027
S'search.winamp.com'
p2028
a(lp2029
S'Winamp'
p2030
aS'q'
aS'search/search?q={k}'
p2031
aaa(lp2032
S'www.witch.de'
p2033
a(lp2034
S'Witch'
p2035
ag430
aS'search-result.php?cn=0&search={k}'
p2036
aaa(lp2037
S'szukaj.wp.pl'
p2038
a(lp2039
S'Wirtualna Polska'
p2040
aS'szukaj'
p2041
aS'http:#szukaj.wp.pl/szukaj.html?szukaj={k}'
p2042
aaa(lp2043
S'www.woopie.jp'
p2044
a(lp2045
S'Woopie'
p2046
ag398
aS'search?kw={k}'
p2047
aaa(lp2048
S'search.www.ee'
p2049
a(lp2050
S'www v\xc3\xa4rav'
p2051
ag129
aaa(lp2052
S'www.x-recherche.com'
p2053
a(lp2054
S'X-Recherche'
p2055
aS'MOTS'
p2056
aS'cgi-bin/websearch?MOTS={k}'
p2057
aaa(lp2058
S'search.yahoo.co.jp'
p2059
a(lp2060
S'Yahoo! Japan'
p2061
a(lp2062
S'p'
aS'vp'
p2063
aaS'search?p={k}'
p2064
aaa(lp2065
S'jp.hao123.com'
p2066
a(lp2067
S'Yahoo! Japan'
p2068
ag129
aaa(lp2069
S'video.search.yahoo.co.jp'
p2070
a(lp2071
S'Yahoo! Japan Videos'
p2072
aS'p'
aS'search?p={k}'
p2073
aaa(lp2074
S'image.search.yahoo.co.jp'
p2075
a(lp2076
S'Yahoo! Japan Images'
p2077
aS'p'
aS'search?p={k}'
p2078
aaa(lp2079
S'search.yahoo.com'
p2080
a(lp2081
S'Yahoo!'
p2082
a(lp2083
S'p'
aS'q'
aaS'search?p={k}'
p2084
aaa(lp2085
S'yahoo.com'
p2086
a(lp2087
S'Yahoo!'
p2088
aaa(lp2089
S'yahoo.{}'
p2090
a(lp2091
S'Yahoo!'
p2092
aaa(lp2093
S'{}.yahoo.com'
p2094
a(lp2095
S'Yahoo!'
p2096
aaa(lp2097
S'cade.yahoo.com'
p2098
a(lp2099
S'Yahoo!'
p2100
aaa(lp2101
S'espanol.yahoo.com'
p2102
a(lp2103
S'Yahoo!'
p2104
aaa(lp2105
S'qc.yahoo.com'
p2106
a(lp2107
S'Yahoo!'
p2108
aaa(lp2109
S'one.cn.yahoo.com'
p2110
a(lp2111
S'Yahoo!'
p2112
aaa(lp2113
S'www.cercato.it'
p2114
a(lp2115
S'Yahoo!'
p2116
aS'q'
aaa(lp2117
S'search.offerbox.com'
p2118
a(lp2119
S'Yahoo!'
p2120
aS'q'
aaa(lp2121
S'www.benefind.de'
p2122
a(lp2123
S'Yahoo!'
p2124
aS'q'
aaa(lp2125
S'ys.mirostart.com'
p2126
a(lp2127
S'Yahoo!'
p2128
aS'q'
aaa(lp2129
S'search.yahoo.com/search/dir'
p2130
a(lp2131
S'Yahoo! Directory'
p2132
aS'p'
aS'?p={k}'
p2133
aaa(lp2134
S'images.search.yahoo.com'
p2135
a(lp2136
S'Yahoo! Images'
p2137
a(lp2138
S'p'
aS'va'
p2139
aaS'search/images?p={k}'
p2140
aaa(lp2141
S'{}.images.yahoo.com'
p2142
a(lp2143
S'Yahoo! Images'
p2144
aaa(lp2145
S'cade.images.yahoo.com'
p2146
a(lp2147
S'Yahoo! Images'
p2148
aaa(lp2149
S'espanol.images.yahoo.com'
p2150
a(lp2151
S'Yahoo! Images'
p2152
aaa(lp2153
S'qc.images.yahoo.com'
p2154
a(lp2155
S'Yahoo! Images'
p2156
aaa(lp2157
S'search.yam.com'
p2158
a(lp2159
S'Yam'
p2160
aS'k'
aS'Search/Web/?SearchType=web&k={k}'
p2161
aaa(lp2162
S'yandex.ru'
p2163
a(lp2164
S'Yandex'
p2165
ag1587
aS'yandsearch?text={k}'
p2166
aaa(lp2167
S'yandex.com'
p2168
a(lp2169
g2165
aaa(lp2170
S'yandex.{}'
p2171
a(lp2172
g2165
aaa(lp2173
S'images.yandex.ru'
p2174
a(lp2175
S'Yandex Images'
p2176
ag1587
aS'yandsearch?text={k}'
p2177
aaa(lp2178
S'images.yandex.com'
p2179
a(lp2180
S'Yandex Images'
p2181
aaa(lp2182
S'images.yandex.{}'
p2183
a(lp2184
S'Yandex Images'
p2185
aaa(lp2186
S'www.yasni.de'
p2187
a(lp2188
S'Yasni'
p2189
ag129
aaa(lp2190
S'www.yasni.com'
p2191
a(lp2192
g2189
aaa(lp2193
S'www.yasni.co.uk'
p2194
a(lp2195
g2189
aaa(lp2196
S'www.yasni.ch'
p2197
a(lp2198
g2189
aaa(lp2199
S'www.yasni.at'
p2200
a(lp2201
g2189
aaa(lp2202
S'www.yatedo.com'
p2203
a(lp2204
S'Yatedo'
p2205
aS'q'
aS'search/profil?q={k}'
p2206
aaa(lp2207
S'www.yatedo.fr'
p2208
a(lp2209
g2205
aaa(lp2210
S'yellowmap.de'
p2211
a(lp2212
S'Yellowmap'
p2213
aS' '
aaa(lp2214
S'search.yippy.com'
p2215
a(lp2216
S'Yippy'
p2217
ag129
aS'search?query={k}'
p2218
aaa(lp2219
S'www.yougoo.fr'
p2220
a(lp2221
S'YouGoo'
p2222
aS'q'
aS'?cx=search&q={k}'
p2223
aaa(lp2224
S'www.zapmeta.com'
p2225
a(lp2226
S'Zapmeta'
p2227
a(lp2228
S'q'
ag129
aaS'?q={k}'
p2229
aaa(lp2230
S'zapmeta.{}'
p2231
a(lp2232
g2227
aaa(lp2233
S'uk.zapmeta.com'
p2234
a(lp2235
g2227
aaa(lp2236
S'ar.zapmeta.com'
p2237
a(lp2238
g2227
aaa(lp2239
S'au.zapmeta.com'
p2240
a(lp2241
g2227
aaa(lp2242
S'ca.zapmeta.com'
p2243
a(lp2244
g2227
aaa(lp2245
S'fi.zapmeta.com'
p2246
a(lp2247
g2227
aaa(lp2248
S'no.zapmeta.com'
p2249
a(lp2250
g2227
aaa(lp2251
S'tr.zapmeta.com'
p2252
a(lp2253
g2227
aaa(lp2254
S'www3.zoek.nl'
p2255
a(lp2256
S'Zoek'
p2257
aS'q'
aaa(lp2258
S'p.zhongsou.com'
p2259
a(lp2260
S'Zhongsou'
p2261
aS'w'
aS'p?w={k}'
p2262
aaa(lp2263
S'www.zoeken.nl'
p2264
a(lp2265
S'Zoeken'
p2266
aS'q'
aS'?q={k}'
p2267
aaa(lp2268
S'zoohoo.cz'
p2269
a(lp2270
S'Zoohoo'
p2271
aS'q'
aS'?q={k}'
p2272
aS'windows-1250'
p2273
aaa(lp2274
S'www.zoznam.sk'
p2275
a(lp2276
S'Zoznam'
p2277
aS's'
aS'hladaj.fcgi?s={k}&co=svet'
p2278
aaa(lp2279
S'www.zxuso.com'
p2280
a(lp2281
S'Zxuso'
p2282
ag396
aS'ri/?wd={k}'
p2283
aaatRp2284
.